; ModuleID = 'source-C-CXX/2/2970.c'
source_filename = "source-C-CXX/2/2970.c"
target datalayout = "e-m:e-p270:32:32-p271:32:32-p272:64:64-i64:64-f80:128-n8:16:32:64-S128"
target triple = "x86_64-pc-linux-gnu"

@.str = private unnamed_addr constant [5 x i8] c"%d%d\00", align 1
@.str.1 = private unnamed_addr constant [3 x i8] c"%d\00", align 1
@.str.2 = private unnamed_addr constant [4 x i8] c"yes\00", align 1
@.str.3 = private unnamed_addr constant [3 x i8] c"no\00", align 1

; Function Attrs: nofree nounwind sspstrong uwtable
define dso_local i32 @main() local_unnamed_addr #0 {
  %1 = alloca i32, align 4
  %2 = alloca i32, align 4
  %3 = alloca [1000 x i32], align 16
  %4 = bitcast i32* %1 to i8*
  call void @llvm.lifetime.start.p0i8(i64 4, i8* nonnull %4) #3
  %5 = bitcast i32* %2 to i8*
  call void @llvm.lifetime.start.p0i8(i64 4, i8* nonnull %5) #3
  %6 = bitcast [1000 x i32]* %3 to i8*
  call void @llvm.lifetime.start.p0i8(i64 4000, i8* nonnull %6) #3
  %7 = call i32 (i8*, ...) @__isoc99_scanf(i8* getelementptr inbounds ([5 x i8], [5 x i8]* @.str, i64 0, i64 0), i32* nonnull %1, i32* nonnull %2)
  %8 = load i32, i32* %1, align 4, !tbaa !5
  %9 = icmp sgt i32 %8, 0
  br i1 %9, label %16, label %48

10:                                               ; preds = %16
  %11 = load i32, i32* %2, align 4
  %12 = icmp sgt i32 %21, 0
  br i1 %12, label %13, label %48

13:                                               ; preds = %10
  %14 = zext i32 %21 to i64
  %15 = zext i32 %21 to i64
  br label %24

16:                                               ; preds = %0, %16
  %17 = phi i64 [ %20, %16 ], [ 0, %0 ]
  %18 = getelementptr inbounds [1000 x i32], [1000 x i32]* %3, i64 0, i64 %17
  %19 = call i32 (i8*, ...) @__isoc99_scanf(i8* getelementptr inbounds ([3 x i8], [3 x i8]* @.str.1, i64 0, i64 0), i32* nonnull %18)
  %20 = add nuw nsw i64 %17, 1
  %21 = load i32, i32* %1, align 4, !tbaa !5
  %22 = sext i32 %21 to i64
  %23 = icmp slt i64 %20, %22
  br i1 %23, label %16, label %10, !llvm.loop !9

24:                                               ; preds = %13, %42
  %25 = phi i64 [ 0, %13 ], [ %28, %42 ]
  %26 = phi i64 [ 1, %13 ], [ %44, %42 ]
  %27 = phi i32 [ 0, %13 ], [ %43, %42 ]
  %28 = add nuw nsw i64 %25, 1
  %29 = icmp ult i64 %28, %14
  br i1 %29, label %30, label %42

30:                                               ; preds = %24
  %31 = getelementptr inbounds [1000 x i32], [1000 x i32]* %3, i64 0, i64 %25
  %32 = load i32, i32* %31, align 4, !tbaa !5
  br label %35

33:                                               ; preds = %35
  %34 = icmp eq i64 %41, %15
  br i1 %34, label %42, label %35, !llvm.loop !11

35:                                               ; preds = %30, %33
  %36 = phi i64 [ %26, %30 ], [ %41, %33 ]
  %37 = getelementptr inbounds [1000 x i32], [1000 x i32]* %3, i64 0, i64 %36
  %38 = load i32, i32* %37, align 4, !tbaa !5
  %39 = add nsw i32 %38, %32
  %40 = icmp eq i32 %39, %11
  %41 = add nuw nsw i64 %36, 1
  br i1 %40, label %42, label %33

42:                                               ; preds = %33, %35, %24
  %43 = phi i32 [ %27, %24 ], [ 1, %35 ], [ %27, %33 ]
  %44 = add nuw nsw i64 %26, 1
  %45 = icmp eq i64 %28, %15
  br i1 %45, label %46, label %24, !llvm.loop !12

46:                                               ; preds = %42
  %47 = icmp eq i32 %43, 1
  br i1 %47, label %49, label %48

48:                                               ; preds = %0, %10, %46
  br label %49

49:                                               ; preds = %46, %48
  %50 = phi i8* [ getelementptr inbounds ([3 x i8], [3 x i8]* @.str.3, i64 0, i64 0), %48 ], [ getelementptr inbounds ([4 x i8], [4 x i8]* @.str.2, i64 0, i64 0), %46 ]
  %51 = call i32 (i8*, ...) @printf(i8* nonnull dereferenceable(1) %50)
  %52 = call i32 (i8*, ...) @__isoc99_scanf(i8* getelementptr inbounds ([5 x i8], [5 x i8]* @.str, i64 0, i64 0), i32* nonnull %1, i32* nonnull %2)
  call void @llvm.lifetime.end.p0i8(i64 4000, i8* nonnull %6) #3
  call void @llvm.lifetime.end.p0i8(i64 4, i8* nonnull %5) #3
  call void @llvm.lifetime.end.p0i8(i64 4, i8* nonnull %4) #3
  ret i32 0
}

; Function Attrs: argmemonly mustprogress nofree nosync nounwind willreturn
declare void @llvm.lifetime.start.p0i8(i64 immarg, i8* nocapture) #1

; Function Attrs: nofree nounwind
declare noundef i32 @__isoc99_scanf(i8* nocapture noundef readonly, ...) local_unnamed_addr #2

; Function Attrs: nofree nounwind
declare noundef i32 @printf(i8* nocapture noundef readonly, ...) local_unnamed_addr #2

; Function Attrs: argmemonly mustprogress nofree nosync nounwind willreturn
declare void @llvm.lifetime.end.p0i8(i64 immarg, i8* nocapture) #1


!llvm.module.flags = !{!0, !1, !2, !3}
!llvm.ident = !{!4}

!0 = !{i32 1, !"wchar_size", i32 4}
!1 = !{i32 7, !"PIC Level", i32 2}
!2 = !{i32 7, !"PIE Level", i32 2}
!3 = !{i32 7, !"uwtable", i32 1}
!4 = !{!"clang version 13.0.0"}
!5 = !{!6, !6, i64 0}
!6 = !{!"int", !7, i64 0}
!7 = !{!"omnipotent char", !8, i64 0}
!8 = !{!"Simple C/C++ TBAA"}
!9 = distinct !{!9, !10}
!10 = !{!"llvm.loop.mustprogress"}
!11 = distinct !{!11, !10}
!12 = distinct !{!12, !10}
